target datalayout = "e-m:e-p270:32:32-p271:32:32-p272:64:64-i64:64-i128:128-f80:128-n8:16:32:64-S128"
target triple = "x86_64-pc-linux-gnu"

%struct.AVFormatContext = type { ptr, ptr, ptr, ptr, ptr, i32, i32, ptr, i32, ptr, i32, ptr, ptr, i64, i64, i64, i32, i32, i32, i64, i64, ptr, i32, i32, ptr, i32, i32, i32, i32, ptr, i64, i32, i32, %struct.AVIOInterruptCB, i32, i32, i32, i32, i64, i32, i32, i32, i32, i32, i32, i32, i32, i32, i32, i32, i32, i64, i32, i32, i32, i32, i32, ptr, ptr, ptr, ptr, i32, ptr, ptr, ptr, ptr, i32, ptr, ptr, i64, ptr, ptr, ptr, i64 }
%struct.AVIOInterruptCB = type { ptr, ptr }
%struct.AVStream = type { ptr, i32, i32, ptr, ptr, %struct.AVRational, i64, i64, i64, i32, i32, %struct.AVRational, ptr, %struct.AVRational, %struct.AVPacket, i32, %struct.AVRational, i32 }
%struct.AVPacket = type { ptr, i64, i64, ptr, i32, i32, i32, ptr, i32, i64, i64, ptr, ptr, %struct.AVRational }
%struct.AVRational = type { i32, i32 }
%struct.AVCodecParameters = type { i32, i32, i32, ptr, i32, ptr, i32, i32, i64, i32, i32, i32, i32, i32, i32, %struct.AVRational, %struct.AVRational, i32, i32, i32, i32, i32, i32, i32, %struct.AVChannelLayout, i32, i32, i32, i32, i32, i32 }
%struct.AVChannelLayout = type { i32, i32, %union.anon, ptr }
%union.anon = type { i64 }
%struct.MaxisXADemuxContext = type { i32, i32 }

; Function Attrs: nounwind uwtable
define internal i32 @xa_read_packet(ptr noundef %0, ptr noundef %1) #0 {
  %3 = alloca i32, align 4
  %4 = alloca ptr, align 8
  %5 = alloca ptr, align 8
  %6 = alloca ptr, align 8
  %7 = alloca ptr, align 8
  %8 = alloca ptr, align 8
  %9 = alloca i32, align 4
  %10 = alloca i32, align 4
  %11 = alloca i32, align 4
  store ptr %0, ptr %4, align 8, !tbaa !16
  store ptr %1, ptr %5, align 8, !tbaa !56
  call void @llvm.lifetime.start.p0(i64 8, ptr %6) #4
  %12 = load ptr, ptr %4, align 8, !tbaa !16
  %13 = getelementptr inbounds nuw %struct.AVFormatContext, ptr %12, i32 0, i32 3
  %14 = load ptr, ptr %13, align 8, !tbaa !18
  store ptr %14, ptr %6, align 8, !tbaa !33
  call void @llvm.lifetime.start.p0(i64 8, ptr %7) #4
  %15 = load ptr, ptr %4, align 8, !tbaa !16
  %16 = getelementptr inbounds nuw %struct.AVFormatContext, ptr %15, i32 0, i32 7
  %17 = load ptr, ptr %16, align 8, !tbaa !58
  %18 = getelementptr inbounds ptr, ptr %17, i64 0
  %19 = load ptr, ptr %18, align 8, !tbaa !37
  store ptr %19, ptr %7, align 8, !tbaa !37
  call void @llvm.lifetime.start.p0(i64 8, ptr %8) #4
  %20 = load ptr, ptr %4, align 8, !tbaa !16
  %21 = getelementptr inbounds nuw %struct.AVFormatContext, ptr %20, i32 0, i32 4
  %22 = load ptr, ptr %21, align 8, !tbaa !35
  store ptr %22, ptr %8, align 8, !tbaa !36
  call void @llvm.lifetime.start.p0(i64 4, ptr %9) #4
  call void @llvm.lifetime.start.p0(i64 4, ptr %10) #4
  %23 = load ptr, ptr %6, align 8, !tbaa !33
  %24 = getelementptr inbounds nuw %struct.MaxisXADemuxContext, ptr %23, i32 0, i32 1
  %25 = load i32, ptr %24, align 4, !tbaa !59
  %26 = load ptr, ptr %6, align 8, !tbaa !33
  %27 = getelementptr inbounds nuw %struct.MaxisXADemuxContext, ptr %26, i32 0, i32 0
  %28 = load i32, ptr %27, align 4, !tbaa !50
  %29 = icmp uge i32 %25, %28
  br i1 %29, label %30, label %31

30:                                               ; preds = %2
  store i32 -541478725, ptr %3, align 4
  store i32 1, ptr %11, align 4
  br label %61

31:                                               ; preds = %2
  %32 = load ptr, ptr %7, align 8, !tbaa !37
  %33 = getelementptr inbounds nuw %struct.AVStream, ptr %32, i32 0, i32 3
  %34 = load ptr, ptr %33, align 8, !tbaa !39
  %35 = getelementptr inbounds nuw %struct.AVCodecParameters, ptr %34, i32 0, i32 24
  %36 = getelementptr inbounds nuw %struct.AVChannelLayout, ptr %35, i32 0, i32 1
  %37 = load i32, ptr %36, align 4, !tbaa !52
  %38 = mul nsw i32 15, %37
  store i32 %38, ptr %9, align 4, !tbaa !15
  %39 = load ptr, ptr %8, align 8, !tbaa !36
  %40 = load ptr, ptr %5, align 8, !tbaa !56
  %41 = load i32, ptr %9, align 4, !tbaa !15
  %42 = call i32 @av_get_packet(ptr noundef %39, ptr noundef %40, i32 noundef %41)
  store i32 %42, ptr %10, align 4, !tbaa !15
  %43 = load i32, ptr %10, align 4, !tbaa !15
  %44 = icmp slt i32 %43, 0
  br i1 %44, label %45, label %47

45:                                               ; preds = %31
  %46 = load i32, ptr %10, align 4, !tbaa !15
  store i32 %46, ptr %3, align 4
  store i32 1, ptr %11, align 4
  br label %61

47:                                               ; preds = %31
  %48 = load ptr, ptr %7, align 8, !tbaa !37
  %49 = getelementptr inbounds nuw %struct.AVStream, ptr %48, i32 0, i32 1
  %50 = load i32, ptr %49, align 8, !tbaa !60
  %51 = load ptr, ptr %5, align 8, !tbaa !56
  %52 = getelementptr inbounds nuw %struct.AVPacket, ptr %51, i32 0, i32 5
  store i32 %50, ptr %52, align 4, !tbaa !61
  %53 = load i32, ptr %9, align 4, !tbaa !15
  %54 = load ptr, ptr %6, align 8, !tbaa !33
  %55 = getelementptr inbounds nuw %struct.MaxisXADemuxContext, ptr %54, i32 0, i32 1
  %56 = load i32, ptr %55, align 4, !tbaa !59
  %57 = add i32 %56, %53
  store i32 %57, ptr %55, align 4, !tbaa !59
  %58 = load ptr, ptr %5, align 8, !tbaa !56
  %59 = getelementptr inbounds nuw %struct.AVPacket, ptr %58, i32 0, i32 9
  store i64 28, ptr %59, align 8, !tbaa !62
  %60 = load i32, ptr %10, align 4, !tbaa !15
  store i32 %60, ptr %3, align 4
  store i32 1, ptr %11, align 4
  br label %61

61:                                               ; preds = %47, %45, %30
  call void @llvm.lifetime.end.p0(i64 4, ptr %10) #4
  call void @llvm.lifetime.end.p0(i64 4, ptr %9) #4
  call void @llvm.lifetime.end.p0(i64 8, ptr %8) #4
  call void @llvm.lifetime.end.p0(i64 8, ptr %7) #4
  call void @llvm.lifetime.end.p0(i64 8, ptr %6) #4
  %62 = load i32, ptr %3, align 4
  ret i32 %62
}