; Function Attrs: nounwind uwtable
define internal i32 @xa_read_packet(ptr noundef readonly captures(none) %0, ptr noundef %1) #1 {
  %3 = getelementptr inbounds nuw i8, ptr %0, i64 24
  %4 = load ptr, ptr %3, align 8, !tbaa !13
  %5 = getelementptr inbounds nuw i8, ptr %0, i64 48
  %6 = load ptr, ptr %5, align 8, !tbaa !46
  %7 = load ptr, ptr %6, align 8, !tbaa !47
  %8 = getelementptr inbounds nuw i8, ptr %4, i64 4
  %9 = load i32, ptr %8, align 4, !tbaa !49
  %10 = load i32, ptr %4, align 4, !tbaa !40
  %.not = icmp ult i32 %9, %10
  br i1 %.not, label %11, label %28

11:                                               ; preds = %2
  %12 = getelementptr inbounds nuw i8, ptr %0, i64 32
  %13 = load ptr, ptr %12, align 8, !tbaa !28
  %14 = getelementptr inbounds nuw i8, ptr %7, i64 16
  %15 = load ptr, ptr %14, align 8, !tbaa !29
  %16 = getelementptr inbounds nuw i8, ptr %15, i64 132
  %17 = load i32, ptr %16, align 4, !tbaa !42
  %18 = mul nsw i32 %17, 15
  %19 = tail call i32 @av_get_packet(ptr noundef %13, ptr noundef %1, i32 noundef %18) #4
  %20 = icmp slt i32 %19, 0
  br i1 %20, label %28, label %21

21:                                               ; preds = %11
  %22 = getelementptr inbounds nuw i8, ptr %7, i64 8
  %23 = load i32, ptr %22, align 8, !tbaa !50
  %24 = getelementptr inbounds nuw i8, ptr %1, i64 36
  store i32 %23, ptr %24, align 4, !tbaa !51
  %25 = load i32, ptr %8, align 4, !tbaa !49
  %26 = add i32 %25, %18
  store i32 %26, ptr %8, align 4, !tbaa !49
  %27 = getelementptr inbounds nuw i8, ptr %1, i64 64
  store i64 28, ptr %27, align 8, !tbaa !52
  br label %28

28:                                               ; preds = %11, %2, %21
  %.0 = phi i32 [ %19, %21 ], [ -541478725, %2 ], [ %19, %11 ]
  ret i32 %.0
}